target datalayout = "e-m:e-p270:32:32-p271:32:32-p272:64:64-i64:64-i128:128-f80:128-n8:16:32:64-S128"
target triple = "x86_64-pc-linux-gnu"

%struct.Fxch_Man_t_ = type { ptr, i32, i32, ptr, ptr, ptr, ptr, ptr, ptr, ptr, ptr, ptr, ptr, ptr, ptr, i32, ptr, ptr, ptr, ptr, ptr, ptr, ptr, i64, i64, i32, i32, i32, i32, i32 }
%struct.Vec_Flt_t_ = type { i32, i32, ptr }

; Function Attrs: inlinehint nounwind uwtable
define internal i32 @Vec_FltSize(ptr noundef %0) #3 {
  %2 = alloca ptr, align 8
  store ptr %0, ptr %2, align 8, !tbaa !40
  %3 = load ptr, ptr %2, align 8, !tbaa !40
  %4 = getelementptr inbounds nuw %struct.Vec_Flt_t_, ptr %3, i32 0, i32 1
  %5 = load i32, ptr %4, align 4, !tbaa !41
  ret i32 %5
}

; Function Attrs: nounwind uwtable
define void @Fxch_ManPrintDivs(ptr noundef %0) #0 {
  %2 = alloca ptr, align 8
  %3 = alloca i32, align 4
  store ptr %0, ptr %2, align 8, !tbaa !8
  call void @llvm.lifetime.start.p0(i64 4, ptr %3) #10
  store i32 0, ptr %3, align 4, !tbaa !33
  br label %4

4:                                                ; preds = %14, %1
  %5 = load i32, ptr %3, align 4, !tbaa !33
  %6 = load ptr, ptr %2, align 8, !tbaa !8
  %7 = getelementptr inbounds nuw %struct.Fxch_Man_t_, ptr %6, i32 0, i32 8
  %8 = load ptr, ptr %7, align 8, !tbaa !22
  %9 = call i32 @Vec_FltSize(ptr noundef %8)
  %10 = icmp slt i32 %5, %9
  br i1 %10, label %11, label %17

11:                                               ; preds = %4
  %12 = load ptr, ptr %2, align 8, !tbaa !8
  %13 = load i32, ptr %3, align 4, !tbaa !33
  call void @Fxch_DivPrint(ptr noundef %12, i32 noundef %13)
  br label %14

14:                                               ; preds = %11
  %15 = load i32, ptr %3, align 4, !tbaa !33
  %16 = add nsw i32 %15, 1
  store i32 %16, ptr %3, align 4, !tbaa !33
  br label %4, !llvm.loop !134

17:                                               ; preds = %4
  call void @llvm.lifetime.end.p0(i64 4, ptr %3) #10
  ret void
}