; Function Attrs: nounwind uwtable
define void @Fxch_ManPrintDivs(ptr noundef %0) local_unnamed_addr #3 {
  %2 = getelementptr inbounds nuw i8, ptr %0, i64 56
  %3 = load ptr, ptr %2, align 8, !tbaa !37
  %4 = getelementptr i8, ptr %3, i64 4
  %.val4 = load i32, ptr %4, align 4, !tbaa !32
  %5 = icmp sgt i32 %.val4, 0
  br i1 %5, label %.lr.ph, label %._crit_edge

.lr.ph:                                           ; preds = %1, %.lr.ph
  %.05 = phi i32 [ %6, %.lr.ph ], [ 0, %1 ]
  tail call void @Fxch_DivPrint(ptr noundef nonnull %0, i32 noundef %.05) #21
  %6 = add nuw nsw i32 %.05, 1
  %7 = load ptr, ptr %2, align 8, !tbaa !37
  %8 = getelementptr i8, ptr %7, i64 4
  %.val = load i32, ptr %8, align 4, !tbaa !32
  %9 = icmp slt i32 %6, %.val
  br i1 %9, label %.lr.ph, label %._crit_edge, !llvm.loop !133

._crit_edge:                                      ; preds = %.lr.ph, %1
  ret void
}